target datalayout = "e-m:e-p270:32:32-p271:32:32-p272:64:64-i64:64-i128:128-f80:128-n8:16:32:64-S128"
target triple = "x86_64-unknown-linux-gnu"

%struct.BlockDriverState = type { i32, i8, i8, i8, i8, i8, ptr, ptr, ptr, %struct.anon, i8, [4096 x i8], [4096 x i8], [4096 x i8], [16 x i8], ptr, [4096 x i8], %struct.BlockLimits, i32, i32, i32, i32, [32 x i8], %union.anon, %union.anon.0, %union.anon.1, i32, [16 x %struct.anon.2], ptr, %struct.anon.3, ptr, ptr, %struct.anon.4, ptr, ptr, i32, ptr, i64, i64, %struct.QemuMutex, %struct.anon.5, %struct.Stat64, i32, i32, i32, i32, i32, i32, %struct.QemuMutex, %struct.anon.6, %struct.CoQueue, i8, i32, i8, %struct.CoMutex, ptr, ptr }
%struct.anon = type { ptr }
%struct.BlockLimits = type { i32, i64, i32, i64, i32, i32, i32, i64, i32, i64, i64, i32, i8, i32, i32, i32, i32, i32, i32, i32 }
%union.anon = type { %struct.QTailQLink }
%struct.QTailQLink = type { ptr, ptr }
%union.anon.0 = type { %struct.QTailQLink }
%union.anon.1 = type { %struct.QTailQLink }
%struct.anon.2 = type { ptr }
%struct.anon.3 = type { ptr }
%struct.anon.4 = type { ptr }
%struct.anon.5 = type { ptr }
%struct.Stat64 = type { i64 }
%struct.QemuMutex = type { %union.pthread_mutex_t, i8 }
%union.pthread_mutex_t = type { %struct.__pthread_mutex_s }
%struct.__pthread_mutex_s = type { i32, i32, i32, i32, i32, i16, i16, %struct.__pthread_internal_list }
%struct.__pthread_internal_list = type { ptr, ptr }
%struct.anon.6 = type { ptr }
%struct.CoQueue = type { %struct.anon.7 }
%struct.anon.7 = type { ptr, ptr }
%struct.CoMutex = type { i32, ptr, %struct.anon.8, %struct.anon.8, i32, i32, ptr }
%struct.anon.8 = type { ptr }
%struct.BDRVQcow2State = type { i32, i32, i32, i32, i32, i32, i32, i32, i32, i32, i32, i32, i32, i32, i64, i64, ptr, ptr, ptr, ptr, i32, %struct.anon.9, ptr, i64, i32, i32, i64, i64, %struct.CoMutex, %struct.Qcow2CryptoHeaderExtension, ptr, ptr, i8, i32, i64, i32, i32, ptr, i32, i64, i64, i32, i32, i8, i32, i32, i64, ptr, ptr, [5 x i8], i8, i32, i8, i64, i64, i64, i64, ptr, %struct.anon.10, %union.anon.11, i8, ptr, ptr, ptr, %struct.CoQueue, i32, ptr, i8, i8, i32 }
%struct.anon.9 = type { ptr }
%struct.Qcow2CryptoHeaderExtension = type { i64, i64 }
%struct.anon.10 = type { ptr }
%union.anon.11 = type { %struct.QTailQLink }
%struct.BdrvChild = type { ptr, ptr, ptr, i32, ptr, i64, i64, i8, i8, %struct.anon.12, %struct.anon.13 }
%struct.anon.12 = type { ptr, ptr }
%struct.anon.13 = type { ptr, ptr }
%struct.QEMUIOVector = type { ptr, i32, %union.anon.15 }
%union.anon.15 = type { %struct.anon.16 }
%struct.anon.16 = type { i32, %struct.iovec }
%struct.iovec = type { ptr, i64 }
%struct.anon.17 = type { [12 x i8], i64 }

; Function Attrs: nounwind sspstrong uwtable
define internal i32 @do_perform_cow_write(ptr noundef %bs, i64 noundef %cluster_offset, i32 noundef %offset_in_cluster, ptr noundef %qiov) #0 {
entry:
  %retval = alloca i32, align 4
  %bs.addr = alloca ptr, align 8
  %cluster_offset.addr = alloca i64, align 8
  %offset_in_cluster.addr = alloca i32, align 4
  %qiov.addr = alloca ptr, align 8
  %s = alloca ptr, align 8
  %ret = alloca i32, align 4
  store ptr %bs, ptr %bs.addr, align 8
  store i64 %cluster_offset, ptr %cluster_offset.addr, align 8
  store i32 %offset_in_cluster, ptr %offset_in_cluster.addr, align 4
  store ptr %qiov, ptr %qiov.addr, align 8
  %0 = load ptr, ptr %bs.addr, align 8
  %opaque = getelementptr inbounds %struct.BlockDriverState, ptr %0, i32 0, i32 7
  %1 = load ptr, ptr %opaque, align 8
  store ptr %1, ptr %s, align 8
  %2 = load ptr, ptr %qiov.addr, align 8
  %3 = getelementptr inbounds %struct.QEMUIOVector, ptr %2, i32 0, i32 2
  %size = getelementptr inbounds %struct.anon.17, ptr %3, i32 0, i32 1
  %4 = load i64, ptr %size, align 8
  %cmp = icmp eq i64 %4, 0
  br i1 %cmp, label %if.then, label %if.end

if.then:                                          ; preds = %entry
  store i32 0, ptr %retval, align 4
  br label %return

if.end:                                           ; preds = %entry
  %5 = load ptr, ptr %bs.addr, align 8
  %6 = load i64, ptr %cluster_offset.addr, align 8
  %7 = load i32, ptr %offset_in_cluster.addr, align 4
  %conv = zext i32 %7 to i64
  %add = add i64 %6, %conv
  %8 = load ptr, ptr %qiov.addr, align 8
  %9 = getelementptr inbounds %struct.QEMUIOVector, ptr %8, i32 0, i32 2
  %size1 = getelementptr inbounds %struct.anon.17, ptr %9, i32 0, i32 1
  %10 = load i64, ptr %size1, align 8
  %call = call i32 @qcow2_pre_write_overlap_check(ptr noundef %5, i32 noundef 0, i64 noundef %add, i64 noundef %10, i1 noundef zeroext true)
  store i32 %call, ptr %ret, align 4
  %11 = load i32, ptr %ret, align 4
  %cmp2 = icmp slt i32 %11, 0
  br i1 %cmp2, label %if.then4, label %if.end5

if.then4:                                         ; preds = %if.end
  %12 = load i32, ptr %ret, align 4
  store i32 %12, ptr %retval, align 4
  br label %return

if.end5:                                          ; preds = %if.end
  br label %do.body

do.body:                                          ; preds = %if.end5
  %13 = load ptr, ptr %bs.addr, align 8
  %file = getelementptr inbounds %struct.BlockDriverState, ptr %13, i32 0, i32 31
  %14 = load ptr, ptr %file, align 8
  %tobool = icmp ne ptr %14, null
  br i1 %tobool, label %if.then6, label %if.end9

if.then6:                                         ; preds = %do.body
  %15 = load ptr, ptr %bs.addr, align 8
  %file7 = getelementptr inbounds %struct.BlockDriverState, ptr %15, i32 0, i32 31
  %16 = load ptr, ptr %file7, align 8
  %bs8 = getelementptr inbounds %struct.BdrvChild, ptr %16, i32 0, i32 0
  %17 = load ptr, ptr %bs8, align 8
  call void @bdrv_co_debug_event(ptr noundef %17, i32 noundef 17)
  br label %if.end9

if.end9:                                          ; preds = %if.then6, %do.body
  br label %do.end

do.end:                                           ; preds = %if.end9
  %18 = load ptr, ptr %s, align 8
  %data_file = getelementptr inbounds %struct.BDRVQcow2State, ptr %18, i32 0, i32 66
  %19 = load ptr, ptr %data_file, align 8
  %20 = load i64, ptr %cluster_offset.addr, align 8
  %21 = load i32, ptr %offset_in_cluster.addr, align 4
  %conv10 = zext i32 %21 to i64
  %add11 = add i64 %20, %conv10
  %22 = load ptr, ptr %qiov.addr, align 8
  %23 = getelementptr inbounds %struct.QEMUIOVector, ptr %22, i32 0, i32 2
  %size12 = getelementptr inbounds %struct.anon.17, ptr %23, i32 0, i32 1
  %24 = load i64, ptr %size12, align 8
  %25 = load ptr, ptr %qiov.addr, align 8
  %call13 = call i32 @bdrv_co_pwritev(ptr noundef %19, i64 noundef %add11, i64 noundef %24, ptr noundef %25, i32 noundef 0)
  store i32 %call13, ptr %ret, align 4
  %26 = load i32, ptr %ret, align 4
  %cmp14 = icmp slt i32 %26, 0
  br i1 %cmp14, label %if.then16, label %if.end17

if.then16:                                        ; preds = %do.end
  %27 = load i32, ptr %ret, align 4
  store i32 %27, ptr %retval, align 4
  br label %return

if.end17:                                         ; preds = %do.end
  store i32 0, ptr %retval, align 4
  br label %return

return:                                           ; preds = %if.end17, %if.then16, %if.then4, %if.then
  %28 = load i32, ptr %retval, align 4
  ret i32 %28
}