; Function Attrs: nounwind sspstrong uwtable
define internal range(i32 -2147483648, 1) i32 @do_perform_cow_write(ptr noundef %bs, i64 noundef %cluster_offset, i32 noundef %offset_in_cluster, ptr noundef %qiov) #0 {
entry:
  %opaque = getelementptr inbounds nuw i8, ptr %bs, i64 24
  %0 = load ptr, ptr %opaque, align 8
  %size = getelementptr inbounds nuw i8, ptr %qiov, i64 32
  %1 = load i64, ptr %size, align 8
  %cmp = icmp eq i64 %1, 0
  br i1 %cmp, label %return, label %if.end

if.end:                                           ; preds = %entry
  %conv = zext i32 %offset_in_cluster to i64
  %add = add i64 %cluster_offset, %conv
  %call = tail call i32 @qcow2_pre_write_overlap_check(ptr noundef nonnull %bs, i32 noundef 0, i64 noundef %add, i64 noundef %1, i1 noundef zeroext true) #13
  %cmp2 = icmp slt i32 %call, 0
  br i1 %cmp2, label %return, label %do.body

do.body:                                          ; preds = %if.end
  %file = getelementptr inbounds nuw i8, ptr %bs, i64 16840
  %2 = load ptr, ptr %file, align 8
  %tobool.not = icmp eq ptr %2, null
  br i1 %tobool.not, label %do.end, label %if.then6

if.then6:                                         ; preds = %do.body
  %3 = load ptr, ptr %2, align 8
  tail call void @bdrv_co_debug_event(ptr noundef %3, i32 noundef 17) #13
  br label %do.end

do.end:                                           ; preds = %do.body, %if.then6
  %data_file = getelementptr inbounds nuw i8, ptr %0, i64 480
  %4 = load ptr, ptr %data_file, align 8
  %5 = load i64, ptr %size, align 8
  %call13 = tail call i32 @bdrv_co_pwritev(ptr noundef %4, i64 noundef %add, i64 noundef %5, ptr noundef nonnull %qiov, i32 noundef 0) #13
  %call13. = tail call i32 @llvm.smin.i32(i32 %call13, i32 0)
  br label %return

return:                                           ; preds = %do.end, %if.end, %entry
  %retval.0 = phi i32 [ 0, %entry ], [ %call, %if.end ], [ %call13., %do.end ]
  ret i32 %retval.0
}